(dp0
I0
ccopy_reg
_reconstructor
p1
(cnilutility.datatypes
DataObject
p2
c__builtin__
dict
p3
(dp4
S'FL_FLAG'
p5
I0
sS'FL_COMMENT'
p6
NsS'SYSTIME'
p7
g1
(cnilutility.datetime_helper
DatetimeInterval
p8
c__builtin__
list
p9
(lp10
cdatetime
datetime
p11
(S'\x07\xe9\x04\x08\x10\x00-\x08B\x0f'
p12
tp13
Rp14
aNatp15
Rp16
(dp17
S'bounds'
p18
S'[)'
p19
sbsS'FL_VALIDITY'
p20
VV
p21
sS'FL_DESC'
p22
VValid measurement
p23
stp24
Rp25
sI521
g1
(g2
g3
(dp26
S'FL_FLAG'
p27
I521
sS'FL_COMMENT'
p28
NsS'SYSTIME'
p29
g1
(g8
g9
(lp30
g11
(S'\x07\xde\x05\x01\x00\x00\x00\x00\x00\x00'
p31
tp32
Rp33
aNatp34
Rp35
(dp36
g18
S'[)'
p37
sbsS'FL_VALIDITY'
p38
VV
p39
sS'FL_DESC'
p40
VBactericide was added to sample for storage under warm climate. Considered valid
p41
stp42
Rp43
sI770
g1
(g2
g3
(dp44
S'FL_FLAG'
p45
I770
sS'FL_COMMENT'
p46
NsS'SYSTIME'
p47
g1
(g8
g9
(lp48
g11
(S'\x07\xde\x05\x01\x00\x00\x00\x00\x00\x00'
p49
tp50
Rp51
aNatp52
Rp53
(dp54
g18
S'[)'
p55
sbsS'FL_VALIDITY'
p56
VV
p57
sS'FL_DESC'
p58
VValue above range, data element contains estimated value
p59
stp60
Rp61
sI529
g1
(g2
g3
(dp62
S'FL_FLAG'
p63
I529
sS'FL_COMMENT'
p64
NsS'SYSTIME'
p65
g1
(g8
g9
(lp66
g11
(S'\x07\xe8\x0b\x19\t\x062\x0b\xc8z'
p67
tp68
Rp69
aNatp70
Rp71
(dp72
g18
S'[)'
p73
sbsS'FL_VALIDITY'
p74
VV
p75
sS'FL_DESC'
p76
VOC/EC split set in the He-mode
p77
stp78
Rp79
sI530
g1
(g2
g3
(dp80
S'FL_FLAG'
p81
I530
sS'FL_COMMENT'
p82
NsS'SYSTIME'
p83
g1
(g8
g9
(lp84
g11
(S'\x07\xde\x05\x01\x00\x00\x00\x00\x00\x00'
p85
tp86
Rp87
aNatp88
Rp89
(dp90
g18
S'[)'
p91
sbsS'FL_VALIDITY'
p92
VI
p93
sS'FL_DESC'
p94
VInvalid due to too low or too high recovery
p95
stp96
Rp97
sI531
g1
(g2
g3
(dp98
S'FL_FLAG'
p99
I531
sS'FL_COMMENT'
p100
NsS'SYSTIME'
p101
g1
(g8
g9
(lp102
g11
(S'\x07\xde\x05\x01\x00\x00\x00\x00\x00\x00'
p103
tp104
Rp105
aNatp106
Rp107
(dp108
g18
S'[)'
p109
sbsS'FL_VALIDITY'
p110
VV
p111
sS'FL_DESC'
p112
VRecovery anomaly, analysis inaccurate
p113
stp114
Rp115
sI532
g1
(g2
g3
(dp116
S'FL_FLAG'
p117
I532
sS'FL_COMMENT'
p118
NsS'SYSTIME'
p119
g1
(g8
g9
(lp120
g11
(S'\x07\xde\x05\x01\x00\x00\x00\x00\x00\x00'
p121
tp122
Rp123
aNatp124
Rp125
(dp126
g18
S'[)'
p127
sbsS'FL_VALIDITY'
p128
VV
p129
sS'FL_DESC'
p130
VData less accurate than normal due to high field blank value
p131
stp132
Rp133
sI533
g1
(g2
g3
(dp134
S'FL_FLAG'
p135
I533
sS'FL_COMMENT'
p136
NsS'SYSTIME'
p137
g1
(g8
g9
(lp138
g11
(S'\x07\xde\x05\x01\x00\x00\x00\x00\x00\x00'
p139
tp140
Rp141
aNatp142
Rp143
(dp144
g18
S'[)'
p145
sbsS'FL_VALIDITY'
p146
VI
p147
sS'FL_DESC'
p148
VFilters mixed up; incorrect analysis
p149
stp150
Rp151
sI534
g1
(g2
g3
(dp152
S'FL_FLAG'
p153
I534
sS'FL_COMMENT'
p154
NsS'SYSTIME'
p155
g1
(g8
g9
(lp156
g11
(S'\x07\xde\x05\x01\x00\x00\x00\x00\x00\x00'
p157
tp158
Rp159
aNatp160
Rp161
(dp162
g18
S'[)'
p163
sbsS'FL_VALIDITY'
p164
VI
p165
sS'FL_DESC'
p166
VWrong coated denuder used
p167
stp168
Rp169
sI540
g1
(g2
g3
(dp170
S'FL_FLAG'
p171
I540
sS'FL_COMMENT'
p172
NsS'SYSTIME'
p173
g1
(g8
g9
(lp174
g11
(S'\x07\xde\x05\x01\x00\x00\x00\x00\x00\x00'
p175
tp176
Rp177
aNatp178
Rp179
(dp180
g18
S'[)'
p181
sbsS'FL_VALIDITY'
p182
VI
p183
sS'FL_DESC'
p184
VSpectral interference in laboratory analysis
p185
stp186
Rp187
sI541
g1
(g2
g3
(dp188
S'FL_FLAG'
p189
I541
sS'FL_COMMENT'
p190
NsS'SYSTIME'
p191
g1
(g8
g9
(lp192
g11
(S'\x07\xde\x05\x01\x00\x00\x00\x00\x00\x00'
p193
tp194
Rp195
aNatp196
Rp197
(dp198
g18
S'[)'
p199
sbsS'FL_VALIDITY'
p200
VI
p201
sS'FL_DESC'
p202
VGold trap passiviated by unknown compound
p203
stp204
Rp205
sI549
g1
(g2
g3
(dp206
S'FL_FLAG'
p207
I549
sS'FL_COMMENT'
p208
NsS'SYSTIME'
p209
g1
(g8
g9
(lp210
g11
(S'\x07\xde\x05\x01\x00\x00\x00\x00\x00\x00'
p211
tp212
Rp213
aNatp214
Rp215
(dp216
g18
S'[)'
p217
sbsS'FL_VALIDITY'
p218
VI
p219
sS'FL_DESC'
p220
VImpure chemicals
p221
stp222
Rp223
sI555
g1
(g2
g3
(dp224
S'FL_FLAG'
p225
I555
sS'FL_COMMENT'
p226
NsS'SYSTIME'
p227
g1
(g8
g9
(lp228
g11
(S'\x07\xde\x05\x01\x00\x00\x00\x00\x00\x00'
p229
tp230
Rp231
aNatp232
Rp233
(dp234
g18
S'[)'
p235
sbsS'FL_VALIDITY'
p236
VV
p237
sS'FL_DESC'
p238
VPollen and/or leaf contamination, but considered valid
p239
stp240
Rp241
sI556
g1
(g2
g3
(dp242
S'FL_FLAG'
p243
I556
sS'FL_COMMENT'
p244
NsS'SYSTIME'
p245
g1
(g8
g9
(lp246
g11
(S'\x07\xde\x05\x01\x00\x00\x00\x00\x00\x00'
p247
tp248
Rp249
aNatp250
Rp251
(dp252
g18
S'[)'
p253
sbsS'FL_VALIDITY'
p254
VV
p255
sS'FL_DESC'
p256
VBird droppings, but considered valid
p257
stp258
Rp259
sI557
g1
(g2
g3
(dp260
S'FL_FLAG'
p261
I557
sS'FL_COMMENT'
p262
NsS'SYSTIME'
p263
g1
(g8
g9
(lp264
g11
(S'\x07\xde\x05\x01\x00\x00\x00\x00\x00\x00'
p265
tp266
Rp267
aNatp268
Rp269
(dp270
g18
S'[)'
p271
sbsS'FL_VALIDITY'
p272
VV
p273
sS'FL_DESC'
p274
VInsect contamination, but considered valid
p275
stp276
Rp277
sI558
g1
(g2
g3
(dp278
S'FL_FLAG'
p279
I558
sS'FL_COMMENT'
p280
NsS'SYSTIME'
p281
g1
(g8
g9
(lp282
g11
(S'\x07\xde\x05\x01\x00\x00\x00\x00\x00\x00'
p283
tp284
Rp285
aNatp286
Rp287
(dp288
g18
S'[)'
p289
sbsS'FL_VALIDITY'
p290
VV
p291
sS'FL_DESC'
p292
VDust contamination, but considered valid
p293
stp294
Rp295
sI559
g1
(g2
g3
(dp296
S'FL_FLAG'
p297
I559
sS'FL_COMMENT'
p298
NsS'SYSTIME'
p299
g1
(g8
g9
(lp300
g11
(S'\x07\xde\x05\x01\x00\x00\x00\x00\x00\x00'
p301
tp302
Rp303
aNatp304
Rp305
(dp306
g18
S'[)'
p307
sbsS'FL_VALIDITY'
p308
VV
p309
sS'FL_DESC'
p310
VUnspecified contamination or local influence, but considered valid
p311
stp312
Rp313
sI565
g1
(g2
g3
(dp314
S'FL_FLAG'
p315
I565
sS'FL_COMMENT'
p316
NsS'SYSTIME'
p317
g1
(g8
g9
(lp318
g11
(S'\x07\xde\x05\x01\x00\x00\x00\x00\x00\x00'
p319
tp320
Rp321
aNatp322
Rp323
(dp324
g18
S'[)'
p325
sbsS'FL_VALIDITY'
p326
VI
p327
sS'FL_DESC'
p328
VPollen and/or leaf contamination, considered invalid
p329
stp330
Rp331
sI566
g1
(g2
g3
(dp332
S'FL_FLAG'
p333
I566
sS'FL_COMMENT'
p334
NsS'SYSTIME'
p335
g1
(g8
g9
(lp336
g11
(S'\x07\xde\x05\x01\x00\x00\x00\x00\x00\x00'
p337
tp338
Rp339
aNatp340
Rp341
(dp342
g18
S'[)'
p343
sbsS'FL_VALIDITY'
p344
VI
p345
sS'FL_DESC'
p346
VBird droppings, considered invalid
p347
stp348
Rp349
sI567
g1
(g2
g3
(dp350
S'FL_FLAG'
p351
I567
sS'FL_COMMENT'
p352
NsS'SYSTIME'
p353
g1
(g8
g9
(lp354
g11
(S'\x07\xde\x05\x01\x00\x00\x00\x00\x00\x00'
p355
tp356
Rp357
aNatp358
Rp359
(dp360
g18
S'[)'
p361
sbsS'FL_VALIDITY'
p362
VI
p363
sS'FL_DESC'
p364
VInsect contamination, considered invalid
p365
stp366
Rp367
sI568
g1
(g2
g3
(dp368
S'FL_FLAG'
p369
I568
sS'FL_COMMENT'
p370
NsS'SYSTIME'
p371
g1
(g8
g9
(lp372
g11
(S'\x07\xde\x05\x01\x00\x00\x00\x00\x00\x00'
p373
tp374
Rp375
aNatp376
Rp377
(dp378
g18
S'[)'
p379
sbsS'FL_VALIDITY'
p380
VI
p381
sS'FL_DESC'
p382
VDust contamination, considered invalid
p383
stp384
Rp385
sI701
g1
(g2
g3
(dp386
S'FL_FLAG'
p387
I701
sS'FL_COMMENT'
p388
NsS'SYSTIME'
p389
g1
(g8
g9
(lp390
g11
(S'\x07\xde\x05\x01\x00\x00\x00\x00\x00\x00'
p391
tp392
Rp393
aNatp394
Rp395
(dp396
g18
S'[)'
p397
sbsS'FL_VALIDITY'
p398
VI
p399
sS'FL_DESC'
p400
VLess accurate than usual, unspecified reason. (Used only with old data, for new data see groups 6 and 5)
p401
stp402
Rp403
sI578
g1
(g2
g3
(dp404
S'FL_FLAG'
p405
I578
sS'FL_COMMENT'
p406
NsS'SYSTIME'
p407
g1
(g8
g9
(lp408
g11
(S'\x07\xde\x05\x01\x00\x00\x00\x00\x00\x00'
p409
tp410
Rp411
aNatp412
Rp413
(dp414
g18
S'[)'
p415
sbsS'FL_VALIDITY'
p416
VI
p417
sS'FL_DESC'
p418
VLarge sea salt contribution (ratio between marine and excess sulphate is larger than 2.0). Used for old data only. For newer data use 451/450.
p419
stp420
Rp421
sI591
g1
(g2
g3
(dp422
S'FL_FLAG'
p423
I591
sS'FL_COMMENT'
p424
NsS'SYSTIME'
p425
g1
(g8
g9
(lp426
g11
(S'\x07\xde\x05\x01\x00\x00\x00\x00\x00\x00'
p427
tp428
Rp429
aNatp430
Rp431
(dp432
g18
S'[)'
p433
sbsS'FL_VALIDITY'
p434
VI
p435
sS'FL_DESC'
p436
VAgricultural contamination, considered invalid
p437
stp438
Rp439
sI593
g1
(g2
g3
(dp440
S'FL_FLAG'
p441
I593
sS'FL_COMMENT'
p442
NsS'SYSTIME'
p443
g1
(g8
g9
(lp444
g11
(S'\x07\xde\x05\x01\x00\x00\x00\x00\x00\x00'
p445
tp446
Rp447
aNatp448
Rp449
(dp450
g18
S'[)'
p451
sbsS'FL_VALIDITY'
p452
VI
p453
sS'FL_DESC'
p454
VIndustrial contamination, considered invalid
p455
stp456
Rp457
sI599
g1
(g2
g3
(dp458
S'FL_FLAG'
p459
I599
sS'FL_COMMENT'
p460
NsS'SYSTIME'
p461
g1
(g8
g9
(lp462
g11
(S'\x07\xde\x05\x01\x00\x00\x00\x00\x00\x00'
p463
tp464
Rp465
aNatp466
Rp467
(dp468
g18
S'[)'
p469
sbsS'FL_VALIDITY'
p470
VI
p471
sS'FL_DESC'
p472
VUnspecified contamination or local influence
p473
stp474
Rp475
sI771
g1
(g2
g3
(dp476
S'FL_FLAG'
p477
I771
sS'FL_COMMENT'
p478
NsS'SYSTIME'
p479
g1
(g8
g9
(lp480
g11
(S'\x07\xde\x05\x01\x00\x00\x00\x00\x00\x00'
p481
tp482
Rp483
aNatp484
Rp485
(dp486
g18
S'[)'
p487
sbsS'FL_VALIDITY'
p488
VV
p489
sS'FL_DESC'
p490
VValue above range, data element contains upper range limit
p491
stp492
Rp493
sI698
g1
(g2
g3
(dp494
S'FL_FLAG'
p495
I698
sS'FL_COMMENT'
p496
NsS'SYSTIME'
p497
g1
(g8
g9
(lp498
g11
(S'\x07\xe9\x06\x18\r\x1a\x0e\x00\xbd\x89'
p499
tp500
Rp501
aNatp502
Rp503
(dp504
g18
S'[)'
p505
sbsS'FL_VALIDITY'
p506
VV
p507
sS'FL_DESC'
p508
VMechanical problem, unspecified reason
p509
stp510
Rp511
sI699
g1
(g2
g3
(dp512
S'FL_FLAG'
p513
I699
sS'FL_COMMENT'
p514
NsS'SYSTIME'
p515
g1
(g8
g9
(lp516
g11
(S'\x07\xde\x05\x01\x00\x00\x00\x00\x00\x00'
p517
tp518
Rp519
aNatp520
Rp521
(dp522
g18
S'[)'
p523
sbsS'FL_VALIDITY'
p524
VI
p525
sS'FL_DESC'
p526
VMechanical problem, unspecified reason
p527
stp528
Rp529
sI100
g1
(g2
g3
(dp530
S'FL_FLAG'
p531
I100
sS'FL_COMMENT'
p532
NsS'SYSTIME'
p533
g1
(g8
g9
(lp534
g11
(S'\x07\xde\x05\x01\x00\x00\x00\x00\x00\x00'
p535
tp536
Rp537
aNatp538
Rp539
(dp540
g18
S'[)'
p541
sbsS'FL_VALIDITY'
p542
VV
p543
sS'FL_DESC'
p544
VChecked by data originator. Valid measurement, overrides any invalid flags
p545
stp546
Rp547
sI101
g1
(g2
g3
(dp548
S'FL_FLAG'
p549
I101
sS'FL_COMMENT'
p550
NsS'SYSTIME'
p551
g1
(g8
g9
(lp552
g11
(S'\x07\xde\x05\x01\x00\x00\x00\x00\x00\x00'
p553
tp554
Rp555
aNatp556
Rp557
(dp558
g18
S'[)'
p559
sbsS'FL_VALIDITY'
p560
VV
p561
sS'FL_DESC'
p562
VDenuder capture efficiency < 75%. Valid measurement
p563
stp564
Rp565
sI102
g1
(g2
g3
(dp566
S'FL_FLAG'
p567
I102
sS'FL_COMMENT'
p568
NsS'SYSTIME'
p569
g1
(g8
g9
(lp570
g11
(S'\x07\xde\x05\x01\x00\x00\x00\x00\x00\x00'
p571
tp572
Rp573
aNatp574
Rp575
(dp576
g18
S'[)'
p577
sbsS'FL_VALIDITY'
p578
VV
p579
sS'FL_DESC'
p580
VCV of replicate diffusion tubes > 30 %. Valid measurement
p581
stp582
Rp583
sI103
g1
(g2
g3
(dp584
S'FL_FLAG'
p585
I103
sS'FL_COMMENT'
p586
NsS'SYSTIME'
p587
g1
(g8
g9
(lp588
g11
(S'\x07\xde\x05\x01\x00\x00\x00\x00\x00\x00'
p589
tp590
Rp591
aNatp592
Rp593
(dp594
g18
S'[)'
p595
sbsS'FL_VALIDITY'
p596
VV
p597
sS'FL_DESC'
p598
VCV of replicate ALPHA samplers > 15 %. Valid measurement
p599
stp600
Rp601
sI620
g1
(g2
g3
(dp602
S'FL_FLAG'
p603
I620
sS'FL_COMMENT'
p604
NsS'SYSTIME'
p605
g1
(g8
g9
(lp606
g11
(S'\x07\xde\x05\x01\x00\x00\x00\x00\x00\x00'
p607
tp608
Rp609
aNatp610
Rp611
(dp612
g18
S'[)'
p613
sbsS'FL_VALIDITY'
p614
VI
p615
sS'FL_DESC'
p616
VToo high filter breakthrough, considered invalid
p617
stp618
Rp619
sI110
g1
(g2
g3
(dp620
S'FL_FLAG'
p621
I110
sS'FL_COMMENT'
p622
NsS'SYSTIME'
p623
g1
(g8
g9
(lp624
g11
(S'\x07\xde\x05\x01\x00\x00\x00\x00\x00\x00'
p625
tp626
Rp627
aNatp628
Rp629
(dp630
g18
S'[)'
p631
sbsS'FL_VALIDITY'
p632
VV
p633
sS'FL_DESC'
p634
VEpisode data checked and accepted by data originator. Valid measurement
p635
stp636
Rp637
sI111
g1
(g2
g3
(dp638
S'FL_FLAG'
p639
I111
sS'FL_COMMENT'
p640
NsS'SYSTIME'
p641
g1
(g8
g9
(lp642
g11
(S'\x07\xde\x05\x01\x00\x00\x00\x00\x00\x00'
p643
tp644
Rp645
aNatp646
Rp647
(dp648
g18
S'[)'
p649
sbsS'FL_VALIDITY'
p650
VV
p651
sS'FL_DESC'
p652
VIrregular data checked and accepted by data originator. Valid measurement
p653
stp654
Rp655
sI630
g1
(g2
g3
(dp656
S'FL_FLAG'
p657
I630
sS'FL_COMMENT'
p658
NsS'SYSTIME'
p659
g1
(g8
g9
(lp660
g11
(S'\x07\xde\x05\x01\x00\x00\x00\x00\x00\x00'
p661
tp662
Rp663
aNatp664
Rp665
(dp666
g18
S'[)'
p667
sbsS'FL_VALIDITY'
p668
VV
p669
sS'FL_DESC'
p670
VConcentration of gas phase only (aerosol + gas sampler)
p671
stp672
Rp673
sI631
g1
(g2
g3
(dp674
S'FL_FLAG'
p675
I631
sS'FL_COMMENT'
p676
NsS'SYSTIME'
p677
g1
(g8
g9
(lp678
g11
(S'\x07\xde\x05\x01\x00\x00\x00\x00\x00\x00'
p679
tp680
Rp681
aNatp682
Rp683
(dp684
g18
S'[)'
p685
sbsS'FL_VALIDITY'
p686
VV
p687
sS'FL_DESC'
p688
VConcentration of aerosol phase only (aerosol + gas sampler)
p689
stp690
Rp691
sI120
g1
(g2
g3
(dp692
S'FL_FLAG'
p693
I120
sS'FL_COMMENT'
p694
NsS'SYSTIME'
p695
g1
(g8
g9
(lp696
g11
(S'\x07\xde\x05\x01\x00\x00\x00\x00\x00\x00'
p697
tp698
Rp699
aNatp700
Rp701
(dp702
g18
S'[)'
p703
sbsS'FL_VALIDITY'
p704
VV
p705
sS'FL_DESC'
p706
VSample reanalysed with similar results. Valid measurement
p707
stp708
Rp709
sI635
g1
(g2
g3
(dp710
S'FL_FLAG'
p711
I635
sS'FL_COMMENT'
p712
NsS'SYSTIME'
p713
g1
(g8
g9
(lp714
g11
(S'\x07\xde\x05\x01\x00\x00\x00\x00\x00\x00'
p715
tp716
Rp717
aNatp718
Rp719
(dp720
g18
S'[)'
p721
sbsS'FL_VALIDITY'
p722
VI
p723
sS'FL_DESC'
p724
V Internal temperatures too far off target value, considered invalid
p725
stp726
Rp727
sI640
g1
(g2
g3
(dp728
S'FL_FLAG'
p729
I640
sS'FL_COMMENT'
p730
NsS'SYSTIME'
p731
g1
(g8
g9
(lp732
g11
(S'\x07\xde\x05\x01\x00\x00\x00\x00\x00\x00'
p733
tp734
Rp735
aNatp736
Rp737
(dp738
g18
S'[)'
p739
sbsS'FL_VALIDITY'
p740
VV
p741
sS'FL_DESC'
p742
VInstrument internal relative humidity above 40%
p743
stp744
Rp745
sI641
g1
(g2
g3
(dp746
S'FL_FLAG'
p747
I641
sS'FL_COMMENT'
p748
NsS'SYSTIME'
p749
g1
(g8
g9
(lp750
g11
(S'\x07\xde\x05\x01\x00\x00\x00\x00\x00\x00'
p751
tp752
Rp753
aNatp754
Rp755
(dp756
g18
S'[)'
p757
sbsS'FL_VALIDITY'
p758
VI
p759
sS'FL_DESC'
p760
VAerosol filters installed incorrectly
p761
stp762
Rp763
sI644
g1
(g2
g3
(dp764
S'FL_FLAG'
p765
I644
sS'FL_COMMENT'
p766
NsS'SYSTIME'
p767
g1
(g8
g9
(lp768
g11
(S'\x07\xde\x05\x01\x00\x00\x00\x00\x00\x00'
p769
tp770
Rp771
aNatp772
Rp773
(dp774
g18
S'[)'
p775
sbsS'FL_VALIDITY'
p776
VV
p777
sS'FL_DESC'
p778
VLow instrument precision and/or calibration issues
p779
stp780
Rp781
sI645
g1
(g2
g3
(dp782
S'FL_FLAG'
p783
I645
sS'FL_COMMENT'
p784
NsS'SYSTIME'
p785
g1
(g8
g9
(lp786
g11
(S'\x07\xde\x05\x01\x00\x00\x00\x00\x00\x00'
p787
tp788
Rp789
aNatp790
Rp791
(dp792
g18
S'[)'
p793
sbsS'FL_VALIDITY'
p794
VV
p795
sS'FL_DESC'
p796
VExceptional traffic nearby
p797
stp798
Rp799
sI646
g1
(g2
g3
(dp800
S'FL_FLAG'
p801
I646
sS'FL_COMMENT'
p802
NsS'SYSTIME'
p803
g1
(g8
g9
(lp804
g11
(S'\x07\xde\x05\x01\x00\x00\x00\x00\x00\x00'
p805
tp806
Rp807
aNatp808
Rp809
(dp810
g18
S'[)'
p811
sbsS'FL_VALIDITY'
p812
VI
p813
sS'FL_DESC'
p814
VExceptional traffic nearby
p815
stp816
Rp817
sI647
g1
(g2
g3
(dp818
S'FL_FLAG'
p819
I647
sS'FL_COMMENT'
p820
NsS'SYSTIME'
p821
g1
(g8
g9
(lp822
g11
(S'\x07\xde\x05\x01\x00\x00\x00\x00\x00\x00'
p823
tp824
Rp825
aNatp826
Rp827
(dp828
g18
S'[)'
p829
sbsS'FL_VALIDITY'
p830
VV
p831
sS'FL_DESC'
p832
VFire/wood burning nearby
p833
stp834
Rp835
sI648
g1
(g2
g3
(dp836
S'FL_FLAG'
p837
I648
sS'FL_COMMENT'
p838
NsS'SYSTIME'
p839
g1
(g8
g9
(lp840
g11
(S'\x07\xde\x05\x01\x00\x00\x00\x00\x00\x00'
p841
tp842
Rp843
aNatp844
Rp845
(dp846
g18
S'[)'
p847
sbsS'FL_VALIDITY'
p848
VV
p849
sS'FL_DESC'
p850
VSnow sampler
p851
stp852
Rp853
sI649
g1
(g2
g3
(dp854
S'FL_FLAG'
p855
I649
sS'FL_COMMENT'
p856
NsS'SYSTIME'
p857
g1
(g8
g9
(lp858
g11
(S'\x07\xde\x05\x01\x00\x00\x00\x00\x00\x00'
p859
tp860
Rp861
aNatp862
Rp863
(dp864
g18
S'[)'
p865
sbsS'FL_VALIDITY'
p866
VV
p867
sS'FL_DESC'
p868
VTemporary power fail has affected sampler operation
p869
stp870
Rp871
sI650
g1
(g2
g3
(dp872
S'FL_FLAG'
p873
I650
sS'FL_COMMENT'
p874
NsS'SYSTIME'
p875
g1
(g8
g9
(lp876
g11
(S'\x07\xde\x05\x01\x00\x00\x00\x00\x00\x00'
p877
tp878
Rp879
aNatp880
Rp881
(dp882
g18
S'[)'
p883
sbsS'FL_VALIDITY'
p884
VV
p885
sS'FL_DESC'
p886
VPrecipitation collector failure
p887
stp888
Rp889
sI651
g1
(g2
g3
(dp890
S'FL_FLAG'
p891
I651
sS'FL_COMMENT'
p892
NsS'SYSTIME'
p893
g1
(g8
g9
(lp894
g11
(S'\x07\xde\x05\x01\x00\x00\x00\x00\x00\x00'
p895
tp896
Rp897
aNatp898
Rp899
(dp900
g18
S'[)'
p901
sbsS'FL_VALIDITY'
p902
VV
p903
sS'FL_DESC'
p904
VAgricultural activity nearby
p905
stp906
Rp907
sI652
g1
(g2
g3
(dp908
S'FL_FLAG'
p909
I652
sS'FL_COMMENT'
p910
NsS'SYSTIME'
p911
g1
(g8
g9
(lp912
g11
(S'\x07\xde\x05\x01\x00\x00\x00\x00\x00\x00'
p913
tp914
Rp915
aNatp916
Rp917
(dp918
g18
S'[)'
p919
sbsS'FL_VALIDITY'
p920
VV
p921
sS'FL_DESC'
p922
VConstruction/acitivity nearby
p923
stp924
Rp925
sI653
g1
(g2
g3
(dp926
S'FL_FLAG'
p927
I653
sS'FL_COMMENT'
p928
NsS'SYSTIME'
p929
g1
(g8
g9
(lp930
g11
(S'\x07\xde\x05\x01\x00\x00\x00\x00\x00\x00'
p931
tp932
Rp933
aNatp934
Rp935
(dp936
g18
S'[)'
p937
sbsS'FL_VALIDITY'
p938
VV
p939
sS'FL_DESC'
p940
VSampling period shorter than normal, considered representative. Observed values reported
p941
stp942
Rp943
sI654
g1
(g2
g3
(dp944
S'FL_FLAG'
p945
I654
sS'FL_COMMENT'
p946
NsS'SYSTIME'
p947
g1
(g8
g9
(lp948
g11
(S'\x07\xde\x05\x01\x00\x00\x00\x00\x00\x00'
p949
tp950
Rp951
aNatp952
Rp953
(dp954
g18
S'[)'
p955
sbsS'FL_VALIDITY'
p956
VV
p957
sS'FL_DESC'
p958
VSampling period longer than normal, considered representative. Observed values reported
p959
stp960
Rp961
sI655
g1
(g2
g3
(dp962
S'FL_FLAG'
p963
I655
sS'FL_COMMENT'
p964
NsS'SYSTIME'
p965
g1
(g8
g9
(lp966
g11
(S'\x07\xde\x05\x01\x00\x00\x00\x00\x00\x00'
p967
tp968
Rp969
aNatp970
Rp971
(dp972
g18
S'[)'
p973
sbsS'FL_VALIDITY'
p974
VV
p975
sS'FL_DESC'
p976
VEstimated value created by averaging or spliting samples
p977
stp978
Rp979
sI656
g1
(g2
g3
(dp980
S'FL_FLAG'
p981
I656
sS'FL_COMMENT'
p982
NsS'SYSTIME'
p983
g1
(g8
g9
(lp984
g11
(S'\x07\xde\x05\x01\x00\x00\x00\x00\x00\x00'
p985
tp986
Rp987
aNatp988
Rp989
(dp990
g18
S'[)'
p991
sbsS'FL_VALIDITY'
p992
VV
p993
sS'FL_DESC'
p994
VWet-only collector failure, operated as bulk collector
p995
stp996
Rp997
sI657
g1
(g2
g3
(dp998
S'FL_FLAG'
p999
I657
sS'FL_COMMENT'
p1000
NsS'SYSTIME'
p1001
g1
(g8
g9
(lp1002
g11
(S'\x07\xde\x05\x01\x00\x00\x00\x00\x00\x00'
p1003
tp1004
Rp1005
aNatp1006
Rp1007
(dp1008
g18
S'[)'
p1009
sbsS'FL_VALIDITY'
p1010
VV
p1011
sS'FL_DESC'
p1012
VPrecipitation collector overflow. Heavy snowfall/rain shower (squall)
p1013
stp1014
Rp1015
sI658
g1
(g2
g3
(dp1016
S'FL_FLAG'
p1017
I658
sS'FL_COMMENT'
p1018
NsS'SYSTIME'
p1019
g1
(g8
g9
(lp1020
g11
(S'\x07\xde\x05\x01\x00\x00\x00\x00\x00\x00'
p1021
tp1022
Rp1023
aNatp1024
Rp1025
(dp1026
g18
S'[)'
p1027
sbsS'FL_VALIDITY'
p1028
VI
p1029
sS'FL_DESC'
p1030
VToo small air volume
p1031
stp1032
Rp1033
sI147
g1
(g2
g3
(dp1034
S'FL_FLAG'
p1035
I147
sS'FL_COMMENT'
p1036
NsS'SYSTIME'
p1037
g1
(g8
g9
(lp1038
g11
(S'\x07\xde\x05\x01\x00\x00\x00\x00\x00\x00'
p1039
tp1040
Rp1041
aNatp1042
Rp1043
(dp1044
g18
S'[)'
p1045
sbsS'FL_VALIDITY'
p1046
VV
p1047
sS'FL_DESC'
p1048
VBelow theoretical detection limit or formal Q/A limit, but a value has been measured and reported and is considered valid
p1049
stp1050
Rp1051
sI660
g1
(g2
g3
(dp1052
S'FL_FLAG'
p1053
I660
sS'FL_COMMENT'
p1054
NsS'SYSTIME'
p1055
g1
(g8
g9
(lp1056
g11
(S'\x07\xde\x05\x01\x00\x00\x00\x00\x00\x00'
p1057
tp1058
Rp1059
aNatp1060
Rp1061
(dp1062
g18
S'[)'
p1063
sbsS'FL_VALIDITY'
p1064
VV
p1065
sS'FL_DESC'
p1066
VUnspecified sampling anomaly, considered valid
p1067
stp1068
Rp1069
sI662
g1
(g2
g3
(dp1070
S'FL_FLAG'
p1071
I662
sS'FL_COMMENT'
p1072
NsS'SYSTIME'
p1073
g1
(g8
g9
(lp1074
g11
(S'\x07\xde\x05\x01\x00\x00\x00\x00\x00\x00'
p1075
tp1076
Rp1077
aNatp1078
Rp1079
(dp1080
g18
S'[)'
p1081
sbsS'FL_VALIDITY'
p1082
VV
p1083
sS'FL_DESC'
p1084
VToo high sampling flow, data considered valid
p1085
stp1086
Rp1087
sI663
g1
(g2
g3
(dp1088
S'FL_FLAG'
p1089
I663
sS'FL_COMMENT'
p1090
NsS'SYSTIME'
p1091
g1
(g8
g9
(lp1092
g11
(S'\x07\xde\x05\x01\x00\x00\x00\x00\x00\x00'
p1093
tp1094
Rp1095
aNatp1096
Rp1097
(dp1098
g18
S'[)'
p1099
sbsS'FL_VALIDITY'
p1100
VI
p1101
sS'FL_DESC'
p1102
VToo high sampling flow, data considered invalid
p1103
stp1104
Rp1105
sI664
g1
(g2
g3
(dp1106
S'FL_FLAG'
p1107
I664
sS'FL_COMMENT'
p1108
NsS'SYSTIME'
p1109
g1
(g8
g9
(lp1110
g11
(S'\x07\xde\x05\x01\x00\x00\x00\x00\x00\x00'
p1111
tp1112
Rp1113
aNatp1114
Rp1115
(dp1116
g18
S'[)'
p1117
sbsS'FL_VALIDITY'
p1118
VI
p1119
sS'FL_DESC'
p1120
VInstrument flow(s) too far off target value, considered invalid
p1121
stp1122
Rp1123
sI665
g1
(g2
g3
(dp1124
S'FL_FLAG'
p1125
I665
sS'FL_COMMENT'
p1126
NsS'SYSTIME'
p1127
g1
(g8
g9
(lp1128
g11
(S'\x07\xde\x05\x01\x00\x00\x00\x00\x00\x00'
p1129
tp1130
Rp1131
aNatp1132
Rp1133
(dp1134
g18
S'[)'
p1135
sbsS'FL_VALIDITY'
p1136
VV
p1137
sS'FL_DESC'
p1138
VFilter damaged, valid
p1139
stp1140
Rp1141
sI666
g1
(g2
g3
(dp1142
S'FL_FLAG'
p1143
I666
sS'FL_COMMENT'
p1144
NsS'SYSTIME'
p1145
g1
(g8
g9
(lp1146
g11
(S'\x07\xde\x05\x01\x00\x00\x00\x00\x00\x00'
p1147
tp1148
Rp1149
aNatp1150
Rp1151
(dp1152
g18
S'[)'
p1153
sbsS'FL_VALIDITY'
p1154
VI
p1155
sS'FL_DESC'
p1156
VFilter damaged, invalid
p1157
stp1158
Rp1159
sI668
g1
(g2
g3
(dp1160
S'FL_FLAG'
p1161
I668
sS'FL_COMMENT'
p1162
NsS'SYSTIME'
p1163
g1
(g8
g9
(lp1164
g11
(S'\x07\xde\x05\x01\x00\x00\x00\x00\x00\x00'
p1165
tp1166
Rp1167
aNatp1168
Rp1169
(dp1170
g18
S'[)'
p1171
sbsS'FL_VALIDITY'
p1172
VV
p1173
sS'FL_DESC'
p1174
VMoist or wet filter, valid
p1175
stp1176
Rp1177
sI669
g1
(g2
g3
(dp1178
S'FL_FLAG'
p1179
I669
sS'FL_COMMENT'
p1180
NsS'SYSTIME'
p1181
g1
(g8
g9
(lp1182
g11
(S'\x07\xde\x05\x01\x00\x00\x00\x00\x00\x00'
p1183
tp1184
Rp1185
aNatp1186
Rp1187
(dp1188
g18
S'[)'
p1189
sbsS'FL_VALIDITY'
p1190
VI
p1191
sS'FL_DESC'
p1192
VMoist or wet filter, invalid
p1193
stp1194
Rp1195
sI670
g1
(g2
g3
(dp1196
S'FL_FLAG'
p1197
I670
sS'FL_COMMENT'
p1198
NsS'SYSTIME'
p1199
g1
(g8
g9
(lp1200
g11
(S'\x07\xde\x05\x01\x00\x00\x00\x00\x00\x00'
p1201
tp1202
Rp1203
aNatp1204
Rp1205
(dp1206
g18
S'[)'
p1207
sbsS'FL_VALIDITY'
p1208
VI
p1209
sS'FL_DESC'
p1210
VIncomplete data acquisition for multi-component data sets
p1211
stp1212
Rp1213
sI672
g1
(g2
g3
(dp1214
S'FL_FLAG'
p1215
I672
sS'FL_COMMENT'
p1216
NsS'SYSTIME'
p1217
g1
(g8
g9
(lp1218
g11
(S'\x07\xe9\x06\x18\r\x1a\x0e\x00\xbd\x89'
p1219
tp1220
Rp1221
aNatp1222
Rp1223
(dp1224
g18
S'[)'
p1225
sbsS'FL_VALIDITY'
p1226
VI
p1227
sS'FL_DESC'
p1228
VSupersaturation not reached
p1229
stp1230
Rp1231
sI674
g1
(g2
g3
(dp1232
S'FL_FLAG'
p1233
I674
sS'FL_COMMENT'
p1234
NsS'SYSTIME'
p1235
g1
(g8
g9
(lp1236
g11
(S'\x07\xde\x05\x01\x00\x00\x00\x00\x00\x00'
p1237
tp1238
Rp1239
aNatp1240
Rp1241
(dp1242
g18
S'[)'
p1243
sbsS'FL_VALIDITY'
p1244
VV
p1245
sS'FL_DESC'
p1246
VIcing or hoar frost in the intake, considered valid
p1247
stp1248
Rp1249
sI675
g1
(g2
g3
(dp1250
S'FL_FLAG'
p1251
I675
sS'FL_COMMENT'
p1252
NsS'SYSTIME'
p1253
g1
(g8
g9
(lp1254
g11
(S'\x07\xde\x05\x01\x00\x00\x00\x00\x00\x00'
p1255
tp1256
Rp1257
aNatp1258
Rp1259
(dp1260
g18
S'[)'
p1261
sbsS'FL_VALIDITY'
p1262
VV
p1263
sS'FL_DESC'
p1264
Vno visibility data available
p1265
stp1266
Rp1267
sI676
g1
(g2
g3
(dp1268
S'FL_FLAG'
p1269
I676
sS'FL_COMMENT'
p1270
NsS'SYSTIME'
p1271
g1
(g8
g9
(lp1272
g11
(S'\x07\xde\x05\x01\x00\x00\x00\x00\x00\x00'
p1273
tp1274
Rp1275
aNatp1276
Rp1277
(dp1278
g18
S'[)'
p1279
sbsS'FL_VALIDITY'
p1280
VV
p1281
sS'FL_DESC'
p1282
Vstation inside cloud (visibility < 1000 m)
p1283
stp1284
Rp1285
sI677
g1
(g2
g3
(dp1286
S'FL_FLAG'
p1287
I677
sS'FL_COMMENT'
p1288
NsS'SYSTIME'
p1289
g1
(g8
g9
(lp1290
g11
(S'\x07\xde\x05\x01\x00\x00\x00\x00\x00\x00'
p1291
tp1292
Rp1293
aNatp1294
Rp1295
(dp1296
g18
S'[)'
p1297
sbsS'FL_VALIDITY'
p1298
VI
p1299
sS'FL_DESC'
p1300
VIcing or hoar frost in the intake
p1301
stp1302
Rp1303
sI678
g1
(g2
g3
(dp1304
S'FL_FLAG'
p1305
I678
sS'FL_COMMENT'
p1306
NsS'SYSTIME'
p1307
g1
(g8
g9
(lp1308
g11
(S'\x07\xde\x05\x01\x00\x00\x00\x00\x00\x00'
p1309
tp1310
Rp1311
aNatp1312
Rp1313
(dp1314
g18
S'[)'
p1315
sbsS'FL_VALIDITY'
p1316
VV
p1317
sS'FL_DESC'
p1318
VHurricane
p1319
stp1320
Rp1321
sI679
g1
(g2
g3
(dp1322
S'FL_FLAG'
p1323
I679
sS'FL_COMMENT'
p1324
NsS'SYSTIME'
p1325
g1
(g8
g9
(lp1326
g11
(S'\x07\xde\x05\x01\x00\x00\x00\x00\x00\x00'
p1327
tp1328
Rp1329
aNatp1330
Rp1331
(dp1332
g18
S'[)'
p1333
sbsS'FL_VALIDITY'
p1334
VV
p1335
sS'FL_DESC'
p1336
VUnspecified meteorological condition
p1337
stp1338
Rp1339
sI680
g1
(g2
g3
(dp1340
S'FL_FLAG'
p1341
I680
sS'FL_COMMENT'
p1342
NsS'SYSTIME'
p1343
g1
(g8
g9
(lp1344
g11
(S'\x07\xde\x05\x01\x00\x00\x00\x00\x00\x00'
p1345
tp1346
Rp1347
aNatp1348
Rp1349
(dp1350
g18
S'[)'
p1351
sbsS'FL_VALIDITY'
p1352
VV
p1353
sS'FL_DESC'
p1354
VUndefined wind direction
p1355
stp1356
Rp1357
sI681
g1
(g2
g3
(dp1358
S'FL_FLAG'
p1359
I681
sS'FL_COMMENT'
p1360
NsS'SYSTIME'
p1361
g1
(g8
g9
(lp1362
g11
(S'\x07\xde\x05\x01\x00\x00\x00\x00\x00\x00'
p1363
tp1364
Rp1365
aNatp1366
Rp1367
(dp1368
g18
S'[)'
p1369
sbsS'FL_VALIDITY'
p1370
VI
p1371
sS'FL_DESC'
p1372
VLow data capture
p1373
stp1374
Rp1375
sI682
g1
(g2
g3
(dp1376
S'FL_FLAG'
p1377
I682
sS'FL_COMMENT'
p1378
NsS'SYSTIME'
p1379
g1
(g8
g9
(lp1380
g11
(S'\x07\xde\x05\x01\x00\x00\x00\x00\x00\x00'
p1381
tp1382
Rp1383
aNatp1384
Rp1385
(dp1386
g18
S'[)'
p1387
sbsS'FL_VALIDITY'
p1388
VI
p1389
sS'FL_DESC'
p1390
VInvalid due to calibration or zero/span check. Used for Level 0.
p1391
stp1392
Rp1393
sI683
g1
(g2
g3
(dp1394
S'FL_FLAG'
p1395
I683
sS'FL_COMMENT'
p1396
NsS'SYSTIME'
p1397
g1
(g8
g9
(lp1398
g11
(S'\x07\xde\x05\x01\x00\x00\x00\x00\x00\x00'
p1399
tp1400
Rp1401
aNatp1402
Rp1403
(dp1404
g18
S'[)'
p1405
sbsS'FL_VALIDITY'
p1406
VI
p1407
sS'FL_DESC'
p1408
VInvalid due to calibration. Used for Level 0.
p1409
stp1410
Rp1411
sI684
g1
(g2
g3
(dp1412
S'FL_FLAG'
p1413
I684
sS'FL_COMMENT'
p1414
NsS'SYSTIME'
p1415
g1
(g8
g9
(lp1416
g11
(S'\x07\xde\x05\x01\x00\x00\x00\x00\x00\x00'
p1417
tp1418
Rp1419
aNatp1420
Rp1421
(dp1422
g18
S'[)'
p1423
sbsS'FL_VALIDITY'
p1424
VI
p1425
sS'FL_DESC'
p1426
VInvalid due to zero/span check. Used for Level 0.
p1427
stp1428
Rp1429
sI685
g1
(g2
g3
(dp1430
S'FL_FLAG'
p1431
I685
sS'FL_COMMENT'
p1432
NsS'SYSTIME'
p1433
g1
(g8
g9
(lp1434
g11
(S'\x07\xde\x05\x01\x00\x00\x00\x00\x00\x00'
p1435
tp1436
Rp1437
aNatp1438
Rp1439
(dp1440
g18
S'[)'
p1441
sbsS'FL_VALIDITY'
p1442
VI
p1443
sS'FL_DESC'
p1444
VInvalid due to secondary standard gas measurement. Used for Level 0.
p1445
stp1446
Rp1447
sI686
g1
(g2
g3
(dp1448
S'FL_FLAG'
p1449
I686
sS'FL_COMMENT'
p1450
NsS'SYSTIME'
p1451
g1
(g8
g9
(lp1452
g11
(S'\x07\xde\x05\x01\x00\x00\x00\x00\x00\x00'
p1453
tp1454
Rp1455
aNatp1456
Rp1457
(dp1458
g18
S'[)'
p1459
sbsS'FL_VALIDITY'
p1460
VI
p1461
sS'FL_DESC'
p1462
VInvalid due to zero check. Used for Level 0.
p1463
stp1464
Rp1465
sI687
g1
(g2
g3
(dp1466
S'FL_FLAG'
p1467
I687
sS'FL_COMMENT'
p1468
NsS'SYSTIME'
p1469
g1
(g8
g9
(lp1470
g11
(S'\x07\xde\x05\x01\x00\x00\x00\x00\x00\x00'
p1471
tp1472
Rp1473
aNatp1474
Rp1475
(dp1476
g18
S'[)'
p1477
sbsS'FL_VALIDITY'
p1478
VI
p1479
sS'FL_DESC'
p1480
VInvalid due to span check. Used for Level 0.
p1481
stp1482
Rp1483
sI695
g1
(g2
g3
(dp1484
S'FL_FLAG'
p1485
I695
sS'FL_COMMENT'
p1486
NsS'SYSTIME'
p1487
g1
(g8
g9
(lp1488
g11
(S'\x07\xe9\x06\x18\r\x1a\x0e\x00\xbd\x89'
p1489
tp1490
Rp1491
aNatp1492
Rp1493
(dp1494
g18
S'[)'
p1495
sbsS'FL_VALIDITY'
p1496
VV
p1497
sS'FL_DESC'
p1498
VMeasurement out of range, considered valid
p1499
stp1500
Rp1501
sI696
g1
(g2
g3
(dp1502
S'FL_FLAG'
p1503
I696
sS'FL_COMMENT'
p1504
NsS'SYSTIME'
p1505
g1
(g8
g9
(lp1506
g11
(S'\x07\xe9\x06\x18\r\x1a\x0e\x00\xbd\x89'
p1507
tp1508
Rp1509
aNatp1510
Rp1511
(dp1512
g18
S'[)'
p1513
sbsS'FL_VALIDITY'
p1514
VI
p1515
sS'FL_DESC'
p1516
VMeasurement out of range, considered invalid
p1517
stp1518
Rp1519
sI185
g1
(g2
g3
(dp1520
S'FL_FLAG'
p1521
I185
sS'FL_COMMENT'
p1522
NsS'SYSTIME'
p1523
g1
(g8
g9
(lp1524
g11
(S'\x07\xde\x05\x01\x00\x00\x00\x00\x00\x00'
p1525
tp1526
Rp1527
aNatp1528
Rp1529
(dp1530
g18
S'[)'
p1531
sbsS'FL_VALIDITY'
p1532
VV
p1533
sS'FL_DESC'
p1534
VPossible local contamination indicated by wind direction or velocity
p1535
stp1536
Rp1537
sI186
g1
(g2
g3
(dp1538
S'FL_FLAG'
p1539
I186
sS'FL_COMMENT'
p1540
NsS'SYSTIME'
p1541
g1
(g8
g9
(lp1542
g11
(S'\x07\xde\x05\x01\x00\x00\x00\x00\x00\x00'
p1543
tp1544
Rp1545
aNatp1546
Rp1547
(dp1548
g18
S'[)'
p1549
sbsS'FL_VALIDITY'
p1550
VV
p1551
sS'FL_DESC'
p1552
VPossible local contamination indicated by single scattering albedo (auto)
p1553
stp1554
Rp1555
sI187
g1
(g2
g3
(dp1556
S'FL_FLAG'
p1557
I187
sS'FL_COMMENT'
p1558
NsS'SYSTIME'
p1559
g1
(g8
g9
(lp1560
g11
(S'\x07\xde\x05\x01\x00\x00\x00\x00\x00\x00'
p1561
tp1562
Rp1563
aNatp1564
Rp1565
(dp1566
g18
S'[)'
p1567
sbsS'FL_VALIDITY'
p1568
VV
p1569
sS'FL_DESC'
p1570
VPossible local contamination indicated by occurrence of new particles (auto)
p1571
stp1572
Rp1573
sI188
g1
(g2
g3
(dp1574
S'FL_FLAG'
p1575
I188
sS'FL_COMMENT'
p1576
NsS'SYSTIME'
p1577
g1
(g8
g9
(lp1578
g11
(S'\x07\xde\x05\x01\x00\x00\x00\x00\x00\x00'
p1579
tp1580
Rp1581
aNatp1582
Rp1583
(dp1584
g18
S'[)'
p1585
sbsS'FL_VALIDITY'
p1586
VV
p1587
sS'FL_DESC'
p1588
VPossible local contamination indicated by low wind speed (auto)
p1589
stp1590
Rp1591
sI189
g1
(g2
g3
(dp1592
S'FL_FLAG'
p1593
I189
sS'FL_COMMENT'
p1594
NsS'SYSTIME'
p1595
g1
(g8
g9
(lp1596
g11
(S'\x07\xde\x05\x01\x00\x00\x00\x00\x00\x00'
p1597
tp1598
Rp1599
aNatp1600
Rp1601
(dp1602
g18
S'[)'
p1603
sbsS'FL_VALIDITY'
p1604
VV
p1605
sS'FL_DESC'
p1606
VPossible local contamination indicated by wind from contaminated sector (auto)
p1607
stp1608
Rp1609
sI190
g1
(g2
g3
(dp1610
S'FL_FLAG'
p1611
I190
sS'FL_COMMENT'
p1612
NsS'SYSTIME'
p1613
g1
(g8
g9
(lp1614
g11
(S'\x07\xde\x05\x01\x00\x00\x00\x00\x00\x00'
p1615
tp1616
Rp1617
aNatp1618
Rp1619
(dp1620
g18
S'[)'
p1621
sbsS'FL_VALIDITY'
p1622
VV
p1623
sS'FL_DESC'
p1624
VNot corrected for cross-sensitivity to particle scattering
p1625
stp1626
Rp1627
sI191
g1
(g2
g3
(dp1628
S'FL_FLAG'
p1629
I191
sS'FL_COMMENT'
p1630
NsS'SYSTIME'
p1631
g1
(g8
g9
(lp1632
g11
(S'\x07\xde\x05\x01\x00\x00\x00\x00\x00\x00'
p1633
tp1634
Rp1635
aNatp1636
Rp1637
(dp1638
g18
S'[)'
p1639
sbsS'FL_VALIDITY'
p1640
VV
p1641
sS'FL_DESC'
p1642
VData not truncation corrected - Valid measurement
p1643
stp1644
Rp1645
sI632
g1
(g2
g3
(dp1646
S'FL_FLAG'
p1647
I632
sS'FL_COMMENT'
p1648
NsS'SYSTIME'
p1649
g1
(g8
g9
(lp1650
g11
(S'\x07\xde\x05\x01\x00\x00\x00\x00\x00\x00'
p1651
tp1652
Rp1653
aNatp1654
Rp1655
(dp1656
g18
S'[)'
p1657
sbsS'FL_VALIDITY'
p1658
VV
p1659
sS'FL_DESC'
p1660
VLid of polyurethane foam (PUF) sampler not closed
p1661
stp1662
Rp1663
sI210
g1
(g2
g3
(dp1664
S'FL_FLAG'
p1665
I210
sS'FL_COMMENT'
p1666
NsS'SYSTIME'
p1667
g1
(g8
g9
(lp1668
g11
(S'\x07\xde\x05\x01\x00\x00\x00\x00\x00\x00'
p1669
tp1670
Rp1671
aNatp1672
Rp1673
(dp1674
g18
S'[)'
p1675
sbsS'FL_VALIDITY'
p1676
VV
p1677
sS'FL_DESC'
p1678
VEpisode data checked and accepted by database co-ordinator. Valid measurement
p1679
stp1680
Rp1681
sI211
g1
(g2
g3
(dp1682
S'FL_FLAG'
p1683
I211
sS'FL_COMMENT'
p1684
NsS'SYSTIME'
p1685
g1
(g8
g9
(lp1686
g11
(S'\x07\xde\x05\x01\x00\x00\x00\x00\x00\x00'
p1687
tp1688
Rp1689
aNatp1690
Rp1691
(dp1692
g18
S'[)'
p1693
sbsS'FL_VALIDITY'
p1694
VV
p1695
sS'FL_DESC'
p1696
VIrregular data checked and accepted by database co-ordinator. Valid measurement
p1697
stp1698
Rp1699
sI220
g1
(g2
g3
(dp1700
S'FL_FLAG'
p1701
I220
sS'FL_COMMENT'
p1702
NsS'SYSTIME'
p1703
g1
(g8
g9
(lp1704
g11
(S'\x07\xde\x05\x01\x00\x00\x00\x00\x00\x00'
p1705
tp1706
Rp1707
aNatp1708
Rp1709
(dp1710
g18
S'[)'
p1711
sbsS'FL_VALIDITY'
p1712
VV
p1713
sS'FL_DESC'
p1714
VPreliminary data
p1715
stp1716
Rp1717
sI740
g1
(g2
g3
(dp1718
S'FL_FLAG'
p1719
I740
sS'FL_COMMENT'
p1720
NsS'SYSTIME'
p1721
g1
(g8
g9
(lp1722
g11
(S'\x07\xde\x05\x01\x00\x00\x00\x00\x00\x00'
p1723
tp1724
Rp1725
aNatp1726
Rp1727
(dp1728
g18
S'[)'
p1729
sbsS'FL_VALIDITY'
p1730
VV
p1731
sS'FL_DESC'
p1732
VProbably biased gas/particle ratio
p1733
stp1734
Rp1735
sI741
g1
(g2
g3
(dp1736
S'FL_FLAG'
p1737
I741
sS'FL_COMMENT'
p1738
NsS'SYSTIME'
p1739
g1
(g8
g9
(lp1740
g11
(S'\x07\xde\x05\x01\x00\x00\x00\x00\x00\x00'
p1741
tp1742
Rp1743
aNatp1744
Rp1745
(dp1746
g18
S'[)'
p1747
sbsS'FL_VALIDITY'
p1748
VV
p1749
sS'FL_DESC'
p1750
VNon refractory AMS concentrations. Dont include compounds that volatalises above 600 deg C
p1751
stp1752
Rp1753
sI750
g1
(g2
g3
(dp1754
S'FL_FLAG'
p1755
I750
sS'FL_COMMENT'
p1756
NsS'SYSTIME'
p1757
g1
(g8
g9
(lp1758
g11
(S'\x07\xde\x05\x01\x00\x00\x00\x00\x00\x00'
p1759
tp1760
Rp1761
aNatp1762
Rp1763
(dp1764
g18
S'[)'
p1765
sbsS'FL_VALIDITY'
p1766
VM
p1767
sS'FL_DESC'
p1768
VH+ not measured in alkaline sample
p1769
stp1770
Rp1771
sI247
g1
(g2
g3
(dp1772
S'FL_FLAG'
p1773
I247
sS'FL_COMMENT'
p1774
NsS'SYSTIME'
p1775
g1
(g8
g9
(lp1776
g11
(S'\x07\xde\x05\x01\x00\x00\x00\x00\x00\x00'
p1777
tp1778
Rp1779
aNatp1780
Rp1781
(dp1782
g18
S'[)'
p1783
sbsS'FL_VALIDITY'
p1784
VV
p1785
sS'FL_DESC'
p1786
VOverlapping sample interval was corrected by the database co-ordinator. Possible wrong sample time (used for historic data only).
p1787
stp1788
Rp1789
sI248
g1
(g2
g3
(dp1790
S'FL_FLAG'
p1791
I248
sS'FL_COMMENT'
p1792
NsS'SYSTIME'
p1793
g1
(g8
g9
(lp1794
g11
(S'\x07\xde\x05\x01\x00\x00\x00\x00\x00\x00'
p1795
tp1796
Rp1797
aNatp1798
Rp1799
(dp1800
g18
S'[)'
p1801
sbsS'FL_VALIDITY'
p1802
VV
p1803
sS'FL_DESC'
p1804
VIllegal flag was removed by the database co-ordinator. Lost flag information. (used for historic data only)
p1805
stp1806
Rp1807
sI249
g1
(g2
g3
(dp1808
S'FL_FLAG'
p1809
I249
sS'FL_COMMENT'
p1810
NsS'SYSTIME'
p1811
g1
(g8
g9
(lp1812
g11
(S'\x07\xde\x05\x01\x00\x00\x00\x00\x00\x00'
p1813
tp1814
Rp1815
aNatp1816
Rp1817
(dp1818
g18
S'[)'
p1819
sbsS'FL_VALIDITY'
p1820
VV
p1821
sS'FL_DESC'
p1822
VApparent typing error corrected. Valid measurement
p1823
stp1824
Rp1825
sI250
g1
(g2
g3
(dp1826
S'FL_FLAG'
p1827
I250
sS'FL_COMMENT'
p1828
NsS'SYSTIME'
p1829
g1
(g8
g9
(lp1830
g11
(S'\x07\xde\x05\x01\x00\x00\x00\x00\x00\x00'
p1831
tp1832
Rp1833
aNatp1834
Rp1835
(dp1836
g18
S'[)'
p1837
sbsS'FL_VALIDITY'
p1838
VV
p1839
sS'FL_DESC'
p1840
VConsiderable sea salt contribution, but considered valid
p1841
stp1842
Rp1843
sI251
g1
(g2
g3
(dp1844
S'FL_FLAG'
p1845
I251
sS'FL_COMMENT'
p1846
NsS'SYSTIME'
p1847
g1
(g8
g9
(lp1848
g11
(S'\x07\xde\x05\x01\x00\x00\x00\x00\x00\x00'
p1849
tp1850
Rp1851
aNatp1852
Rp1853
(dp1854
g18
S'[)'
p1855
sbsS'FL_VALIDITY'
p1856
VI
p1857
sS'FL_DESC'
p1858
VInvalid due to large sea salt contribution
p1859
stp1860
Rp1861
sI256
g1
(g2
g3
(dp1862
S'FL_FLAG'
p1863
I256
sS'FL_COMMENT'
p1864
NsS'SYSTIME'
p1865
g1
(g8
g9
(lp1866
g11
(S'\x07\xde\x05\x01\x00\x00\x00\x00\x00\x00'
p1867
tp1868
Rp1869
aNatp1870
Rp1871
(dp1872
g18
S'[)'
p1873
sbsS'FL_VALIDITY'
p1874
VI
p1875
sS'FL_DESC'
p1876
VInvalidated by database co-ordinator
p1877
stp1878
Rp1879
sI257
g1
(g2
g3
(dp1880
S'FL_FLAG'
p1881
I257
sS'FL_COMMENT'
p1882
NsS'SYSTIME'
p1883
g1
(g8
g9
(lp1884
g11
(S'\x07\xde\x05\x01\x00\x00\x00\x00\x00\x00'
p1885
tp1886
Rp1887
aNatp1888
Rp1889
(dp1890
g18
S'[)'
p1891
sbsS'FL_VALIDITY'
p1892
VV
p1893
sS'FL_DESC'
p1894
VExtremely low value, outside four times standard deviation in a log-normal distribution
p1895
stp1896
Rp1897
sI258
g1
(g2
g3
(dp1898
S'FL_FLAG'
p1899
I258
sS'FL_COMMENT'
p1900
NsS'SYSTIME'
p1901
g1
(g8
g9
(lp1902
g11
(S'\x07\xde\x05\x01\x00\x00\x00\x00\x00\x00'
p1903
tp1904
Rp1905
aNatp1906
Rp1907
(dp1908
g18
S'[)'
p1909
sbsS'FL_VALIDITY'
p1910
VV
p1911
sS'FL_DESC'
p1912
VExtremely high value, outside four times standard deviation in a log-normal distribution
p1913
stp1914
Rp1915
sI259
g1
(g2
g3
(dp1916
S'FL_FLAG'
p1917
I259
sS'FL_COMMENT'
p1918
NsS'SYSTIME'
p1919
g1
(g8
g9
(lp1920
g11
(S'\x07\xde\x05\x01\x00\x00\x00\x00\x00\x00'
p1921
tp1922
Rp1923
aNatp1924
Rp1925
(dp1926
g18
S'[)'
p1927
sbsS'FL_VALIDITY'
p1928
VI
p1929
sS'FL_DESC'
p1930
VUnspecified error expected
p1931
stp1932
Rp1933
sI260
g1
(g2
g3
(dp1934
S'FL_FLAG'
p1935
I260
sS'FL_COMMENT'
p1936
NsS'SYSTIME'
p1937
g1
(g8
g9
(lp1938
g11
(S'\x07\xde\x05\x01\x00\x00\x00\x00\x00\x00'
p1939
tp1940
Rp1941
aNatp1942
Rp1943
(dp1944
g18
S'[)'
p1945
sbsS'FL_VALIDITY'
p1946
VI
p1947
sS'FL_DESC'
p1948
VContamination suspected
p1949
stp1950
Rp1951
sI780
g1
(g2
g3
(dp1952
S'FL_FLAG'
p1953
I780
sS'FL_COMMENT'
p1954
NsS'SYSTIME'
p1955
g1
(g8
g9
(lp1956
g11
(S'\x07\xde\x05\x01\x00\x00\x00\x00\x00\x00'
p1957
tp1958
Rp1959
aNatp1960
Rp1961
(dp1962
g18
S'[)'
p1963
sbsS'FL_VALIDITY'
p1964
VV
p1965
sS'FL_DESC'
p1966
VValue below detection or quantification limit, data element contains estimated or measured value. Use of flag 147 is encouraged.
p1967
stp1968
Rp1969
sI781
g1
(g2
g3
(dp1970
S'FL_FLAG'
p1971
I781
sS'FL_COMMENT'
p1972
NsS'SYSTIME'
p1973
g1
(g8
g9
(lp1974
g11
(S'\x07\xde\x05\x01\x00\x00\x00\x00\x00\x00'
p1975
tp1976
Rp1977
aNatp1978
Rp1979
(dp1980
g18
S'[)'
p1981
sbsS'FL_VALIDITY'
p1982
VV
p1983
sS'FL_DESC'
p1984
VValue below detection limit, data element contains detection limit
p1985
stp1986
Rp1987
sI782
g1
(g2
g3
(dp1988
S'FL_FLAG'
p1989
I782
sS'FL_COMMENT'
p1990
NsS'SYSTIME'
p1991
g1
(g8
g9
(lp1992
g11
(S'\x07\xde\x05\x01\x00\x00\x00\x00\x00\x00'
p1993
tp1994
Rp1995
aNatp1996
Rp1997
(dp1998
g18
S'[)'
p1999
sbsS'FL_VALIDITY'
p2000
VV
p2001
sS'FL_DESC'
p2002
VLow precipitation, concentration estimated
p2003
stp2004
Rp2005
sI783
g1
(g2
g3
(dp2006
S'FL_FLAG'
p2007
I783
sS'FL_COMMENT'
p2008
NsS'SYSTIME'
p2009
g1
(g8
g9
(lp2010
g11
(S'\x07\xde\x05\x01\x00\x00\x00\x00\x00\x00'
p2011
tp2012
Rp2013
aNatp2014
Rp2015
(dp2016
g18
S'[)'
p2017
sbsS'FL_VALIDITY'
p2018
VM
p2019
sS'FL_DESC'
p2020
VLow precipitation, concentration unknown
p2021
stp2022
Rp2023
sI784
g1
(g2
g3
(dp2024
S'FL_FLAG'
p2025
I784
sS'FL_COMMENT'
p2026
NsS'SYSTIME'
p2027
g1
(g8
g9
(lp2028
g11
(S'\x07\xde\x05\x01\x00\x00\x00\x00\x00\x00'
p2029
tp2030
Rp2031
aNatp2032
Rp2033
(dp2034
g18
S'[)'
p2035
sbsS'FL_VALIDITY'
p2036
VI
p2037
sS'FL_DESC'
p2038
VLow precipitation, concentration estimated
p2039
stp2040
Rp2041
sI275
g1
(g2
g3
(dp2042
S'FL_FLAG'
p2043
I275
sS'FL_COMMENT'
p2044
NsS'SYSTIME'
p2045
g1
(g8
g9
(lp2046
g11
(S'\x07\xde\x05\x01\x00\x00\x00\x00\x00\x00'
p2047
tp2048
Rp2049
aNatp2050
Rp2051
(dp2052
g18
S'[)'
p2053
sbsS'FL_VALIDITY'
p2054
VV
p2055
sS'FL_DESC'
p2056
VInconsistency between measured and estimated conductivity, but considered valid
p2057
stp2058
Rp2059
sI276
g1
(g2
g3
(dp2060
S'FL_FLAG'
p2061
I276
sS'FL_COMMENT'
p2062
NsS'SYSTIME'
p2063
g1
(g8
g9
(lp2064
g11
(S'\x07\xde\x05\x01\x00\x00\x00\x00\x00\x00'
p2065
tp2066
Rp2067
aNatp2068
Rp2069
(dp2070
g18
S'[)'
p2071
sbsS'FL_VALIDITY'
p2072
VV
p2073
sS'FL_DESC'
p2074
VInconsistency discovered through ion balance calculations, but considered valid
p2075
stp2076
Rp2077
sI277
g1
(g2
g3
(dp2078
S'FL_FLAG'
p2079
I277
sS'FL_COMMENT'
p2080
NsS'SYSTIME'
p2081
g1
(g8
g9
(lp2082
g11
(S'\x07\xde\x05\x01\x00\x00\x00\x00\x00\x00'
p2083
tp2084
Rp2085
aNatp2086
Rp2087
(dp2088
g18
S'[)'
p2089
sbsS'FL_VALIDITY'
p2090
VI
p2091
sS'FL_DESC'
p2092
VInvalid due to inconsistency between measured and estimated conductivity
p2093
stp2094
Rp2095
sI278
g1
(g2
g3
(dp2096
S'FL_FLAG'
p2097
I278
sS'FL_COMMENT'
p2098
NsS'SYSTIME'
p2099
g1
(g8
g9
(lp2100
g11
(S'\x07\xde\x05\x01\x00\x00\x00\x00\x00\x00'
p2101
tp2102
Rp2103
aNatp2104
Rp2105
(dp2106
g18
S'[)'
p2107
sbsS'FL_VALIDITY'
p2108
VI
p2109
sS'FL_DESC'
p2110
VInvalid due to inconsistency discovered through ion balance calculations
p2111
stp2112
Rp2113
sI900
g1
(g2
g3
(dp2114
S'FL_FLAG'
p2115
I900
sS'FL_COMMENT'
p2116
NsS'SYSTIME'
p2117
g1
(g8
g9
(lp2118
g11
(S'\x07\xde\x05\x01\x00\x00\x00\x00\x00\x00'
p2119
tp2120
Rp2121
aNatp2122
Rp2123
(dp2124
g18
S'[)'
p2125
sbsS'FL_VALIDITY'
p2126
VH
p2127
sS'FL_DESC'
p2128
VHidden and invalidated by data originator
p2129
stp2130
Rp2131
sI797
g1
(g2
g3
(dp2132
S'FL_FLAG'
p2133
I797
sS'FL_COMMENT'
p2134
NsS'SYSTIME'
p2135
g1
(g8
g9
(lp2136
g11
(S'\x07\xde\x05\x01\x00\x00\x00\x00\x00\x00'
p2137
tp2138
Rp2139
aNatp2140
Rp2141
(dp2142
g18
S'[)'
p2143
sbsS'FL_VALIDITY'
p2144
VV
p2145
sS'FL_DESC'
p2146
VData element taken from co-located instrument
p2147
stp2148
Rp2149
sI798
g1
(g2
g3
(dp2150
S'FL_FLAG'
p2151
I798
sS'FL_COMMENT'
p2152
NsS'SYSTIME'
p2153
g1
(g8
g9
(lp2154
g11
(S'\x07\xde\x05\x01\x00\x00\x00\x00\x00\x00'
p2155
tp2156
Rp2157
aNatp2158
Rp2159
(dp2160
g18
S'[)'
p2161
sbsS'FL_VALIDITY'
p2162
VV
p2163
sS'FL_DESC'
p2164
VMeasurement missing (unspecified reason), data element contains estimated value. Considered valid.
p2165
stp2166
Rp2167
sI799
g1
(g2
g3
(dp2168
S'FL_FLAG'
p2169
I799
sS'FL_COMMENT'
p2170
NsS'SYSTIME'
p2171
g1
(g8
g9
(lp2172
g11
(S'\x07\xde\x05\x01\x00\x00\x00\x00\x00\x00'
p2173
tp2174
Rp2175
aNatp2176
Rp2177
(dp2178
g18
S'[)'
p2179
sbsS'FL_VALIDITY'
p2180
VI
p2181
sS'FL_DESC'
p2182
VMeasurement missing (unspecified reason), data element contains estimated value
p2183
stp2184
Rp2185
sI298
g1
(g2
g3
(dp2186
S'FL_FLAG'
p2187
I298
sS'FL_COMMENT'
p2188
NsS'SYSTIME'
p2189
g1
(g8
g9
(lp2190
g11
(S'\x07\xde\x05\x01\x00\x00\x00\x00\x00\x00'
p2191
tp2192
Rp2193
aNatp2194
Rp2195
(dp2196
g18
S'[)'
p2197
sbsS'FL_VALIDITY'
p2198
VV
p2199
sS'FL_DESC'
p2200
VGold trap inconsistency in mercury monitor
p2201
stp2202
Rp2203
sI299
g1
(g2
g3
(dp2204
S'FL_FLAG'
p2205
I299
sS'FL_COMMENT'
p2206
NsS'SYSTIME'
p2207
g1
(g8
g9
(lp2208
g11
(S'\x07\xde\x05\x01\x00\x00\x00\x00\x00\x00'
p2209
tp2210
Rp2211
aNatp2212
Rp2213
(dp2214
g18
S'[)'
p2215
sbsS'FL_VALIDITY'
p2216
VV
p2217
sS'FL_DESC'
p2218
VInconsistent with another unspecified measurement
p2219
stp2220
Rp2221
sI990
g1
(g2
g3
(dp2222
S'FL_FLAG'
p2223
I990
sS'FL_COMMENT'
p2224
NsS'SYSTIME'
p2225
g1
(g8
g9
(lp2226
g11
(S'\x07\xde\x05\x01\x00\x00\x00\x00\x00\x00'
p2227
tp2228
Rp2229
aNatp2230
Rp2231
(dp2232
g18
S'[)'
p2233
sbsS'FL_VALIDITY'
p2234
VM
p2235
sS'FL_DESC'
p2236
VPrecipitation not measured due to snow-fall. Needed for historic data, should not be needed for new data
p2237
stp2238
Rp2239
sI360
g1
(g2
g3
(dp2240
S'FL_FLAG'
p2241
I360
sS'FL_COMMENT'
p2242
NsS'SYSTIME'
p2243
g1
(g8
g9
(lp2244
g11
(S'\x07\xde\x05\x01\x00\x00\x00\x00\x00\x00'
p2245
tp2246
Rp2247
aNatp2248
Rp2249
(dp2250
g18
S'[)'
p2251
sbsS'FL_VALIDITY'
p2252
VV
p2253
sS'FL_DESC'
p2254
VSampling interval is one of several sampling intervals averaged
p2255
stp2256
Rp2257
sI370
g1
(g2
g3
(dp2258
S'FL_FLAG'
p2259
I370
sS'FL_COMMENT'
p2260
NsS'SYSTIME'
p2261
g1
(g8
g9
(lp2262
g11
(S'\x07\xde\x05\x01\x00\x00\x00\x00\x00\x00'
p2263
tp2264
Rp2265
aNatp2266
Rp2267
(dp2268
g18
S'[)'
p2269
sbsS'FL_VALIDITY'
p2270
VV
p2271
sS'FL_DESC'
p2272
VFor monthly values using samples partly in two month, the number of days are used for weighing the sample
p2273
stp2274
Rp2275
sI659
g1
(g2
g3
(dp2276
S'FL_FLAG'
p2277
I659
sS'FL_COMMENT'
p2278
NsS'SYSTIME'
p2279
g1
(g8
g9
(lp2280
g11
(S'\x07\xde\x05\x01\x00\x00\x00\x00\x00\x00'
p2281
tp2282
Rp2283
aNatp2284
Rp2285
(dp2286
g18
S'[)'
p2287
sbsS'FL_VALIDITY'
p2288
VI
p2289
sS'FL_DESC'
p2290
VUnspecified sampling anomaly
p2291
stp2292
Rp2293
sI890
g1
(g2
g3
(dp2294
S'FL_FLAG'
p2295
I890
sS'FL_COMMENT'
p2296
NsS'SYSTIME'
p2297
g1
(g8
g9
(lp2298
g11
(S'\x07\xde\x05\x01\x00\x00\x00\x00\x00\x00'
p2299
tp2300
Rp2301
aNatp2302
Rp2303
(dp2304
g18
S'[)'
p2305
sbsS'FL_VALIDITY'
p2306
VM
p2307
sS'FL_DESC'
p2308
VConcentration in precipitation undefined, no precipitation
p2309
stp2310
Rp2311
sI891
g1
(g2
g3
(dp2312
S'FL_FLAG'
p2313
I891
sS'FL_COMMENT'
p2314
NsS'SYSTIME'
p2315
g1
(g8
g9
(lp2316
g11
(S'\x07\xe9\x06\x18\r\x1a\x0e\x00\xbd\x89'
p2317
tp2318
Rp2319
aNatp2320
Rp2321
(dp2322
g18
S'[)'
p2323
sbsS'FL_VALIDITY'
p2324
VM
p2325
sS'FL_DESC'
p2326
VCloud measurements undefined, no cloud
p2327
stp2328
Rp2329
sI380
g1
(g2
g3
(dp2330
S'FL_FLAG'
p2331
I380
sS'FL_COMMENT'
p2332
NsS'SYSTIME'
p2333
g1
(g8
g9
(lp2334
g11
(S'\x07\xde\x05\x01\x00\x00\x00\x00\x00\x00'
p2335
tp2336
Rp2337
aNatp2338
Rp2339
(dp2340
g18
S'[)'
p2341
sbsS'FL_VALIDITY'
p2342
VV
p2343
sS'FL_DESC'
p2344
VMore than 50% of the measurements are below detection limit
p2345
stp2346
Rp2347
sI382
g1
(g2
g3
(dp2348
S'FL_FLAG'
p2349
I382
sS'FL_COMMENT'
p2350
NsS'SYSTIME'
p2351
g1
(g8
g9
(lp2352
g11
(S'\x07\xde\x05\x01\x00\x00\x00\x00\x00\x00'
p2353
tp2354
Rp2355
aNatp2356
Rp2357
(dp2358
g18
S'[)'
p2359
sbsS'FL_VALIDITY'
p2360
VV
p2361
sS'FL_DESC'
p2362
VMore than 75% of the measurements are below detection limit
p2363
stp2364
Rp2365
sI899
g1
(g2
g3
(dp2366
S'FL_FLAG'
p2367
I899
sS'FL_COMMENT'
p2368
NsS'SYSTIME'
p2369
g1
(g8
g9
(lp2370
g11
(S'\x07\xde\x05\x01\x00\x00\x00\x00\x00\x00'
p2371
tp2372
Rp2373
aNatp2374
Rp2375
(dp2376
g18
S'[)'
p2377
sbsS'FL_VALIDITY'
p2378
VM
p2379
sS'FL_DESC'
p2380
VMeasurement undefined, unspecified reason
p2381
stp2382
Rp2383
sI388
g1
(g2
g3
(dp2384
S'FL_FLAG'
p2385
I388
sS'FL_COMMENT'
p2386
NsS'SYSTIME'
p2387
g1
(g8
g9
(lp2388
g11
(S'\x07\xde\x05\x01\x00\x00\x00\x00\x00\x00'
p2389
tp2390
Rp2391
aNatp2392
Rp2393
(dp2394
g18
S'[)'
p2395
sbsS'FL_VALIDITY'
p2396
VV
p2397
sS'FL_DESC'
p2398
VData completeness less than 66%
p2399
stp2400
Rp2401
sI389
g1
(g2
g3
(dp2402
S'FL_FLAG'
p2403
I389
sS'FL_COMMENT'
p2404
NsS'SYSTIME'
p2405
g1
(g8
g9
(lp2406
g11
(S'\x07\xde\x05\x01\x00\x00\x00\x00\x00\x00'
p2407
tp2408
Rp2409
aNatp2410
Rp2411
(dp2412
g18
S'[)'
p2413
sbsS'FL_VALIDITY'
p2414
VI
p2415
sS'FL_DESC'
p2416
VData completeness less than 66%
p2417
stp2418
Rp2419
sI390
g1
(g2
g3
(dp2420
S'FL_FLAG'
p2421
I390
sS'FL_COMMENT'
p2422
NsS'SYSTIME'
p2423
g1
(g8
g9
(lp2424
g11
(S'\x07\xde\x05\x01\x00\x00\x00\x00\x00\x00'
p2425
tp2426
Rp2427
aNatp2428
Rp2429
(dp2430
g18
S'[)'
p2431
sbsS'FL_VALIDITY'
p2432
VV
p2433
sS'FL_DESC'
p2434
VData completeness less than 50%
p2435
stp2436
Rp2437
sI391
g1
(g2
g3
(dp2438
S'FL_FLAG'
p2439
I391
sS'FL_COMMENT'
p2440
NsS'SYSTIME'
p2441
g1
(g8
g9
(lp2442
g11
(S'\x07\xde\x05\x01\x00\x00\x00\x00\x00\x00'
p2443
tp2444
Rp2445
aNatp2446
Rp2447
(dp2448
g18
S'[)'
p2449
sbsS'FL_VALIDITY'
p2450
VI
p2451
sS'FL_DESC'
p2452
VData completeness less than 50%, data considered invalid
p2453
stp2454
Rp2455
sI392
g1
(g2
g3
(dp2456
S'FL_FLAG'
p2457
I392
sS'FL_COMMENT'
p2458
NsS'SYSTIME'
p2459
g1
(g8
g9
(lp2460
g11
(S'\x07\xde\x05\x01\x00\x00\x00\x00\x00\x00'
p2461
tp2462
Rp2463
aNatp2464
Rp2465
(dp2466
g18
S'[)'
p2467
sbsS'FL_VALIDITY'
p2468
VV
p2469
sS'FL_DESC'
p2470
VData completeness less than 75%
p2471
stp2472
Rp2473
sI393
g1
(g2
g3
(dp2474
S'FL_FLAG'
p2475
I393
sS'FL_COMMENT'
p2476
NsS'SYSTIME'
p2477
g1
(g8
g9
(lp2478
g11
(S'\x07\xde\x05\x01\x00\x00\x00\x00\x00\x00'
p2479
tp2480
Rp2481
aNatp2482
Rp2483
(dp2484
g18
S'[)'
p2485
sbsS'FL_VALIDITY'
p2486
VI
p2487
sS'FL_DESC'
p2488
VData completeness less than 75%, data considered invalid
p2489
stp2490
Rp2491
sI394
g1
(g2
g3
(dp2492
S'FL_FLAG'
p2493
I394
sS'FL_COMMENT'
p2494
NsS'SYSTIME'
p2495
g1
(g8
g9
(lp2496
g11
(S'\x07\xde\x05\x01\x00\x00\x00\x00\x00\x00'
p2497
tp2498
Rp2499
aNatp2500
Rp2501
(dp2502
g18
S'[)'
p2503
sbsS'FL_VALIDITY'
p2504
VV
p2505
sS'FL_DESC'
p2506
VData completeness less than 90%
p2507
stp2508
Rp2509
sI395
g1
(g2
g3
(dp2510
S'FL_FLAG'
p2511
I395
sS'FL_COMMENT'
p2512
NsS'SYSTIME'
p2513
g1
(g8
g9
(lp2514
g11
(S'\x07\xde\x05\x01\x00\x00\x00\x00\x00\x00'
p2515
tp2516
Rp2517
aNatp2518
Rp2519
(dp2520
g18
S'[)'
p2521
sbsS'FL_VALIDITY'
p2522
VI
p2523
sS'FL_DESC'
p2524
VData completeness less than 90%, data considered invalid
p2525
stp2526
Rp2527
sI410
g1
(g2
g3
(dp2528
S'FL_FLAG'
p2529
I410
sS'FL_COMMENT'
p2530
NsS'SYSTIME'
p2531
g1
(g8
g9
(lp2532
g11
(S'\x07\xde\x05\x01\x00\x00\x00\x00\x00\x00'
p2533
tp2534
Rp2535
aNatp2536
Rp2537
(dp2538
g18
S'[)'
p2539
sbsS'FL_VALIDITY'
p2540
VV
p2541
sS'FL_DESC'
p2542
VSahara dust event
p2543
stp2544
Rp2545
sI411
g1
(g2
g3
(dp2546
S'FL_FLAG'
p2547
I411
sS'FL_COMMENT'
p2548
NsS'SYSTIME'
p2549
g1
(g8
g9
(lp2550
g11
(S'\x07\xde\x05\x01\x00\x00\x00\x00\x00\x00'
p2551
tp2552
Rp2553
aNatp2554
Rp2555
(dp2556
g18
S'[)'
p2557
sbsS'FL_VALIDITY'
p2558
VV
p2559
sS'FL_DESC'
p2560
VAeolian dust event
p2561
stp2562
Rp2563
sI420
g1
(g2
g3
(dp2564
S'FL_FLAG'
p2565
I420
sS'FL_COMMENT'
p2566
NsS'SYSTIME'
p2567
g1
(g8
g9
(lp2568
g11
(S'\x07\xde\x05\x01\x00\x00\x00\x00\x00\x00'
p2569
tp2570
Rp2571
aNatp2572
Rp2573
(dp2574
g18
S'[)'
p2575
sbsS'FL_VALIDITY'
p2576
VV
p2577
sS'FL_DESC'
p2578
VPreliminary data
p2579
stp2580
Rp2581
sI440
g1
(g2
g3
(dp2582
S'FL_FLAG'
p2583
I440
sS'FL_COMMENT'
p2584
NsS'SYSTIME'
p2585
g1
(g8
g9
(lp2586
g11
(S'\x07\xde\x05\x01\x00\x00\x00\x00\x00\x00'
p2587
tp2588
Rp2589
aNatp2590
Rp2591
(dp2592
g18
S'[)'
p2593
sbsS'FL_VALIDITY'
p2594
VV
p2595
sS'FL_DESC'
p2596
VReconstructed or recalculated data
p2597
stp2598
Rp2599
sI450
g1
(g2
g3
(dp2600
S'FL_FLAG'
p2601
I450
sS'FL_COMMENT'
p2602
NsS'SYSTIME'
p2603
g1
(g8
g9
(lp2604
g11
(S'\x07\xde\x05\x01\x00\x00\x00\x00\x00\x00'
p2605
tp2606
Rp2607
aNatp2608
Rp2609
(dp2610
g18
S'[)'
p2611
sbsS'FL_VALIDITY'
p2612
VV
p2613
sS'FL_DESC'
p2614
VConsiderable sea salt contribution, but considered valid
p2615
stp2616
Rp2617
sI451
g1
(g2
g3
(dp2618
S'FL_FLAG'
p2619
I451
sS'FL_COMMENT'
p2620
NsS'SYSTIME'
p2621
g1
(g8
g9
(lp2622
g11
(S'\x07\xde\x05\x01\x00\x00\x00\x00\x00\x00'
p2623
tp2624
Rp2625
aNatp2626
Rp2627
(dp2628
g18
S'[)'
p2629
sbsS'FL_VALIDITY'
p2630
VI
p2631
sS'FL_DESC'
p2632
VInvalid due to large sea salt contribution
p2633
stp2634
Rp2635
sI452
g1
(g2
g3
(dp2636
S'FL_FLAG'
p2637
I452
sS'FL_COMMENT'
p2638
NsS'SYSTIME'
p2639
g1
(g8
g9
(lp2640
g11
(S'\x07\xde\x05\x01\x00\x00\x00\x00\x00\x00'
p2641
tp2642
Rp2643
aNatp2644
Rp2645
(dp2646
g18
S'[)'
p2647
sbsS'FL_VALIDITY'
p2648
VI
p2649
sS'FL_DESC'
p2650
VInvalid due to large uncertainty
p2651
stp2652
Rp2653
sI456
g1
(g2
g3
(dp2654
S'FL_FLAG'
p2655
I456
sS'FL_COMMENT'
p2656
NsS'SYSTIME'
p2657
g1
(g8
g9
(lp2658
g11
(S'\x07\xde\x05\x01\x00\x00\x00\x00\x00\x00'
p2659
tp2660
Rp2661
aNatp2662
Rp2663
(dp2664
g18
S'[)'
p2665
sbsS'FL_VALIDITY'
p2666
VI
p2667
sS'FL_DESC'
p2668
VInvalidated by data originator
p2669
stp2670
Rp2671
sI457
g1
(g2
g3
(dp2672
S'FL_FLAG'
p2673
I457
sS'FL_COMMENT'
p2674
NsS'SYSTIME'
p2675
g1
(g8
g9
(lp2676
g11
(S'\x07\xde\x05\x01\x00\x00\x00\x00\x00\x00'
p2677
tp2678
Rp2679
aNatp2680
Rp2681
(dp2682
g18
S'[)'
p2683
sbsS'FL_VALIDITY'
p2684
VV
p2685
sS'FL_DESC'
p2686
VExtremely low value, outside four times standard deviation in a lognormal distribution
p2687
stp2688
Rp2689
sI458
g1
(g2
g3
(dp2690
S'FL_FLAG'
p2691
I458
sS'FL_COMMENT'
p2692
NsS'SYSTIME'
p2693
g1
(g8
g9
(lp2694
g11
(S'\x07\xde\x05\x01\x00\x00\x00\x00\x00\x00'
p2695
tp2696
Rp2697
aNatp2698
Rp2699
(dp2700
g18
S'[)'
p2701
sbsS'FL_VALIDITY'
p2702
VV
p2703
sS'FL_DESC'
p2704
VExtremely high value, outside four times standard deviation in a lognormal distribution
p2705
stp2706
Rp2707
sI459
g1
(g2
g3
(dp2708
S'FL_FLAG'
p2709
I459
sS'FL_COMMENT'
p2710
NsS'SYSTIME'
p2711
g1
(g8
g9
(lp2712
g11
(S'\x07\xde\x05\x01\x00\x00\x00\x00\x00\x00'
p2713
tp2714
Rp2715
aNatp2716
Rp2717
(dp2718
g18
S'[)'
p2719
sbsS'FL_VALIDITY'
p2720
VI
p2721
sS'FL_DESC'
p2722
VExtreme value, unspecified error
p2723
stp2724
Rp2725
sI460
g1
(g2
g3
(dp2726
S'FL_FLAG'
p2727
I460
sS'FL_COMMENT'
p2728
NsS'SYSTIME'
p2729
g1
(g8
g9
(lp2730
g11
(S'\x07\xde\x05\x01\x00\x00\x00\x00\x00\x00'
p2731
tp2732
Rp2733
aNatp2734
Rp2735
(dp2736
g18
S'[)'
p2737
sbsS'FL_VALIDITY'
p2738
VI
p2739
sS'FL_DESC'
p2740
VContamination suspected
p2741
stp2742
Rp2743
sI760
g1
(g2
g3
(dp2744
S'FL_FLAG'
p2745
I760
sS'FL_COMMENT'
p2746
NsS'SYSTIME'
p2747
g1
(g8
g9
(lp2748
g11
(S'\x07\xde\x05\x01\x00\x00\x00\x00\x00\x00'
p2749
tp2750
Rp2751
aNatp2752
Rp2753
(dp2754
g18
S'[)'
p2755
sbsS'FL_VALIDITY'
p2756
VV
p2757
sS'FL_DESC'
p2758
VValue estimated by summing up the constituents measured
p2759
stp2760
Rp2761
sI980
g1
(g2
g3
(dp2762
S'FL_FLAG'
p2763
I980
sS'FL_COMMENT'
p2764
NsS'SYSTIME'
p2765
g1
(g8
g9
(lp2766
g11
(S'\x07\xde\x05\x01\x00\x00\x00\x00\x00\x00'
p2767
tp2768
Rp2769
aNatp2770
Rp2771
(dp2772
g18
S'[)'
p2773
sbsS'FL_VALIDITY'
p2774
VM
p2775
sS'FL_DESC'
p2776
VMissing due to calibration or zero/span check
p2777
stp2778
Rp2779
sI470
g1
(g2
g3
(dp2780
S'FL_FLAG'
p2781
I470
sS'FL_COMMENT'
p2782
NsS'SYSTIME'
p2783
g1
(g8
g9
(lp2784
g11
(S'\x07\xde\x05\x01\x00\x00\x00\x00\x00\x00'
p2785
tp2786
Rp2787
aNatp2788
Rp2789
(dp2790
g18
S'[)'
p2791
sbsS'FL_VALIDITY'
p2792
VV
p2793
sS'FL_DESC'
p2794
VParticulate mass concentration higher than parallell mass concentration measurement with higher cut off i.e PM1_mass > PM25_mass and PM25_mass > PM10_mass
p2795
stp2796
Rp2797
sI471
g1
(g2
g3
(dp2798
S'FL_FLAG'
p2799
I471
sS'FL_COMMENT'
p2800
NsS'SYSTIME'
p2801
g1
(g8
g9
(lp2802
g11
(S'\x07\xde\x05\x01\x00\x00\x00\x00\x00\x00'
p2803
tp2804
Rp2805
aNatp2806
Rp2807
(dp2808
g18
S'[)'
p2809
sbsS'FL_VALIDITY'
p2810
VI
p2811
sS'FL_DESC'
p2812
VParticulate mass concentration higher than parallell mass concentration measurement with higher cut off i.e PM1_mass > PM25_mass and PM25_mass > PM10_mass. Considered invalid
p2813
stp2814
Rp2815
sI472
g1
(g2
g3
(dp2816
S'FL_FLAG'
p2817
I472
sS'FL_COMMENT'
p2818
NsS'SYSTIME'
p2819
g1
(g8
g9
(lp2820
g11
(S'\x07\xde\x05\x01\x00\x00\x00\x00\x00\x00'
p2821
tp2822
Rp2823
aNatp2824
Rp2825
(dp2826
g18
S'[)'
p2827
sbsS'FL_VALIDITY'
p2828
VV
p2829
sS'FL_DESC'
p2830
VLess accurate than normal due to high concentration(s)
p2831
stp2832
Rp2833
sI475
g1
(g2
g3
(dp2834
S'FL_FLAG'
p2835
I475
sS'FL_COMMENT'
p2836
NsS'SYSTIME'
p2837
g1
(g8
g9
(lp2838
g11
(S'\x07\xde\x05\x01\x00\x00\x00\x00\x00\x00'
p2839
tp2840
Rp2841
aNatp2842
Rp2843
(dp2844
g18
S'[)'
p2845
sbsS'FL_VALIDITY'
p2846
VV
p2847
sS'FL_DESC'
p2848
VInconsistency between measured and estimated conductivity, but considerd valid
p2849
stp2850
Rp2851
sI476
g1
(g2
g3
(dp2852
S'FL_FLAG'
p2853
I476
sS'FL_COMMENT'
p2854
NsS'SYSTIME'
p2855
g1
(g8
g9
(lp2856
g11
(S'\x07\xde\x05\x01\x00\x00\x00\x00\x00\x00'
p2857
tp2858
Rp2859
aNatp2860
Rp2861
(dp2862
g18
S'[)'
p2863
sbsS'FL_VALIDITY'
p2864
VV
p2865
sS'FL_DESC'
p2866
VInconsistency discovered through ion balance calculations, but considerd valid
p2867
stp2868
Rp2869
sI477
g1
(g2
g3
(dp2870
S'FL_FLAG'
p2871
I477
sS'FL_COMMENT'
p2872
NsS'SYSTIME'
p2873
g1
(g8
g9
(lp2874
g11
(S'\x07\xde\x05\x01\x00\x00\x00\x00\x00\x00'
p2875
tp2876
Rp2877
aNatp2878
Rp2879
(dp2880
g18
S'[)'
p2881
sbsS'FL_VALIDITY'
p2882
VI
p2883
sS'FL_DESC'
p2884
VInvalid due to inconsistency between measured and estimated conductivity
p2885
stp2886
Rp2887
sI478
g1
(g2
g3
(dp2888
S'FL_FLAG'
p2889
I478
sS'FL_COMMENT'
p2890
NsS'SYSTIME'
p2891
g1
(g8
g9
(lp2892
g11
(S'\x07\xde\x05\x01\x00\x00\x00\x00\x00\x00'
p2893
tp2894
Rp2895
aNatp2896
Rp2897
(dp2898
g18
S'[)'
p2899
sbsS'FL_VALIDITY'
p2900
VI
p2901
sS'FL_DESC'
p2902
VInvalid due to inconsistency discovered through ion balance calculations
p2903
stp2904
Rp2905
sI999
g1
(g2
g3
(dp2906
S'FL_FLAG'
p2907
I999
sS'FL_COMMENT'
p2908
NsS'SYSTIME'
p2909
g1
(g8
g9
(lp2910
g11
(S'\x07\xde\x05\x01\x00\x00\x00\x00\x00\x00'
p2911
tp2912
Rp2913
aNatp2914
Rp2915
(dp2916
g18
S'[)'
p2917
sbsS'FL_VALIDITY'
p2918
VM
p2919
sS'FL_DESC'
p2920
VMissing measurement, unspecified reason
p2921
stp2922
Rp2923
sI498
g1
(g2
g3
(dp2924
S'FL_FLAG'
p2925
I498
sS'FL_COMMENT'
p2926
NsS'SYSTIME'
p2927
g1
(g8
g9
(lp2928
g11
(S'\x07\xde\x05\x01\x00\x00\x00\x00\x00\x00'
p2929
tp2930
Rp2931
aNatp2932
Rp2933
(dp2934
g18
S'[)'
p2935
sbsS'FL_VALIDITY'
p2936
VV
p2937
sS'FL_DESC'
p2938
VGold trap inconsistency in mercury monitor
p2939
stp2940
Rp2941
sI499
g1
(g2
g3
(dp2942
S'FL_FLAG'
p2943
I499
sS'FL_COMMENT'
p2944
NsS'SYSTIME'
p2945
g1
(g8
g9
(lp2946
g11
(S'\x07\xde\x05\x01\x00\x00\x00\x00\x00\x00'
p2947
tp2948
Rp2949
aNatp2950
Rp2951
(dp2952
g18
S'[)'
p2953
sbsS'FL_VALIDITY'
p2954
VV
p2955
sS'FL_DESC'
p2956
VInconsistent with another unspecified measurement
p2957
stp2958
Rp2959
s.